target datalayout = "e-m:e-p270:32:32-p271:32:32-p272:64:64-i64:64-i128:128-f80:128-n8:16:32:64-S128"
target triple = "x86_64-pc-linux-gnu"

%struct.gz_state = type { i32, i32, ptr, i64, i32, i32, ptr, ptr, ptr, i32, i32, i64, i64, i32, i32, i32, i32, i64, i32, i32, ptr, %struct.z_stream_s }
%struct.z_stream_s = type { ptr, i32, i64, ptr, i32, i64, ptr, ptr, ptr, ptr, ptr, i32, i64, i64 }

; Function Attrs: nounwind uwtable
define internal i32 @gz_zero(ptr noundef %0, i64 noundef %1) #0 {
  %3 = alloca i32, align 4
  %4 = alloca ptr, align 8
  %5 = alloca i64, align 8
  %6 = alloca i32, align 4
  %7 = alloca i32, align 4
  %8 = alloca ptr, align 8
  %9 = alloca i32, align 4
  store ptr %0, ptr %4, align 8, !tbaa !3
  store i64 %1, ptr %5, align 8, !tbaa !37
  call void @llvm.lifetime.start.p0(i64 4, ptr %6) #10
  call void @llvm.lifetime.start.p0(i64 4, ptr %7) #10
  call void @llvm.lifetime.start.p0(i64 8, ptr %8) #10
  %10 = load ptr, ptr %4, align 8, !tbaa !3
  %11 = getelementptr inbounds nuw %struct.gz_state, ptr %10, i32 0, i32 21
  store ptr %11, ptr %8, align 8, !tbaa !9
  %12 = load ptr, ptr %8, align 8, !tbaa !9
  %13 = getelementptr inbounds nuw %struct.z_stream_s, ptr %12, i32 0, i32 1
  %14 = load i32, ptr %13, align 8, !tbaa !21
  %15 = icmp ne i32 %14, 0
  br i1 %15, label %16, label %21

16:                                               ; preds = %2
  %17 = load ptr, ptr %4, align 8, !tbaa !3
  %18 = call i32 @gz_comp(ptr noundef %17, i32 noundef 0)
  %19 = icmp eq i32 %18, -1
  br i1 %19, label %20, label %21

20:                                               ; preds = %16
  store i32 -1, ptr %3, align 4
  store i32 1, ptr %9, align 4
  br label %74

21:                                               ; preds = %16, %2
  store i32 1, ptr %6, align 4, !tbaa !7
  br label %22

22:                                               ; preds = %68, %21
  %23 = load i64, ptr %5, align 8, !tbaa !37
  %24 = icmp ne i64 %23, 0
  br i1 %24, label %25, label %73

25:                                               ; preds = %22
  %26 = load ptr, ptr %4, align 8, !tbaa !3
  %27 = getelementptr inbounds nuw %struct.gz_state, ptr %26, i32 0, i32 4
  %28 = load i32, ptr %27, align 8, !tbaa !18
  %29 = zext i32 %28 to i64
  %30 = load i64, ptr %5, align 8, !tbaa !37
  %31 = icmp sgt i64 %29, %30
  br i1 %31, label %32, label %35

32:                                               ; preds = %25
  %33 = load i64, ptr %5, align 8, !tbaa !37
  %34 = trunc i64 %33 to i32
  br label %39

35:                                               ; preds = %25
  %36 = load ptr, ptr %4, align 8, !tbaa !3
  %37 = getelementptr inbounds nuw %struct.gz_state, ptr %36, i32 0, i32 4
  %38 = load i32, ptr %37, align 8, !tbaa !18
  br label %39

39:                                               ; preds = %35, %32
  %40 = phi i32 [ %34, %32 ], [ %38, %35 ]
  store i32 %40, ptr %7, align 4, !tbaa !7
  %41 = load i32, ptr %6, align 4, !tbaa !7
  %42 = icmp ne i32 %41, 0
  br i1 %42, label %43, label %49

43:                                               ; preds = %39
  %44 = load ptr, ptr %4, align 8, !tbaa !3
  %45 = getelementptr inbounds nuw %struct.gz_state, ptr %44, i32 0, i32 6
  %46 = load ptr, ptr %45, align 8, !tbaa !22
  %47 = load i32, ptr %7, align 4, !tbaa !7
  %48 = zext i32 %47 to i64
  call void @llvm.memset.p0.i64(ptr align 1 %46, i8 0, i64 %48, i1 false)
  store i32 0, ptr %6, align 4, !tbaa !7
  br label %49

49:                                               ; preds = %43, %39
  %50 = load i32, ptr %7, align 4, !tbaa !7
  %51 = load ptr, ptr %8, align 8, !tbaa !9
  %52 = getelementptr inbounds nuw %struct.z_stream_s, ptr %51, i32 0, i32 1
  store i32 %50, ptr %52, align 8, !tbaa !21
  %53 = load ptr, ptr %4, align 8, !tbaa !3
  %54 = getelementptr inbounds nuw %struct.gz_state, ptr %53, i32 0, i32 6
  %55 = load ptr, ptr %54, align 8, !tbaa !22
  %56 = load ptr, ptr %8, align 8, !tbaa !9
  %57 = getelementptr inbounds nuw %struct.z_stream_s, ptr %56, i32 0, i32 0
  store ptr %55, ptr %57, align 8, !tbaa !23
  %58 = load i32, ptr %7, align 4, !tbaa !7
  %59 = zext i32 %58 to i64
  %60 = load ptr, ptr %4, align 8, !tbaa !3
  %61 = getelementptr inbounds nuw %struct.gz_state, ptr %60, i32 0, i32 3
  %62 = load i64, ptr %61, align 8, !tbaa !24
  %63 = add nsw i64 %62, %59
  store i64 %63, ptr %61, align 8, !tbaa !24
  %64 = load ptr, ptr %4, align 8, !tbaa !3
  %65 = call i32 @gz_comp(ptr noundef %64, i32 noundef 0)
  %66 = icmp eq i32 %65, -1
  br i1 %66, label %67, label %68

67:                                               ; preds = %49
  store i32 -1, ptr %3, align 4
  store i32 1, ptr %9, align 4
  br label %74

68:                                               ; preds = %49
  %69 = load i32, ptr %7, align 4, !tbaa !7
  %70 = zext i32 %69 to i64
  %71 = load i64, ptr %5, align 8, !tbaa !37
  %72 = sub nsw i64 %71, %70
  store i64 %72, ptr %5, align 8, !tbaa !37
  br label %22, !llvm.loop !38

73:                                               ; preds = %22
  store i32 0, ptr %3, align 4
  store i32 1, ptr %9, align 4
  br label %74

74:                                               ; preds = %73, %67, %20
  call void @llvm.lifetime.end.p0(i64 8, ptr %8) #10
  call void @llvm.lifetime.end.p0(i64 4, ptr %7) #10
  call void @llvm.lifetime.end.p0(i64 4, ptr %6) #10
  %75 = load i32, ptr %3, align 4
  ret i32 %75
}

; Function Attrs: nounwind uwtable
define i32 @gzputc(ptr noundef %0, i32 noundef %1) #0 {
  %3 = alloca i32, align 4
  %4 = alloca ptr, align 8
  %5 = alloca i32, align 4
  %6 = alloca [1 x i8], align 1
  %7 = alloca ptr, align 8
  %8 = alloca ptr, align 8
  %9 = alloca i32, align 4
  store ptr %0, ptr %4, align 8, !tbaa !3
  store i32 %1, ptr %5, align 4, !tbaa !7
  call void @llvm.lifetime.start.p0(i64 1, ptr %6) #10
  call void @llvm.lifetime.start.p0(i64 8, ptr %7) #10
  call void @llvm.lifetime.start.p0(i64 8, ptr %8) #10
  %10 = load ptr, ptr %4, align 8, !tbaa !3
  %11 = icmp eq ptr %10, null
  br i1 %11, label %12, label %13

12:                                               ; preds = %2
  store i32 -1, ptr %3, align 4
  store i32 1, ptr %9, align 4
  br label %90

13:                                               ; preds = %2
  %14 = load ptr, ptr %4, align 8, !tbaa !3
  store ptr %14, ptr %7, align 8, !tbaa !3
  %15 = load ptr, ptr %7, align 8, !tbaa !3
  %16 = getelementptr inbounds nuw %struct.gz_state, ptr %15, i32 0, i32 21
  store ptr %16, ptr %8, align 8, !tbaa !9
  %17 = load ptr, ptr %7, align 8, !tbaa !3
  %18 = getelementptr inbounds nuw %struct.gz_state, ptr %17, i32 0, i32 0
  %19 = load i32, ptr %18, align 8, !tbaa !11
  %20 = icmp ne i32 %19, 31153
  br i1 %20, label %26, label %21

21:                                               ; preds = %13
  %22 = load ptr, ptr %7, align 8, !tbaa !3
  %23 = getelementptr inbounds nuw %struct.gz_state, ptr %22, i32 0, i32 19
  %24 = load i32, ptr %23, align 4, !tbaa !17
  %25 = icmp ne i32 %24, 0
  br i1 %25, label %26, label %27

26:                                               ; preds = %21, %13
  store i32 -1, ptr %3, align 4
  store i32 1, ptr %9, align 4
  br label %90

27:                                               ; preds = %21
  %28 = load ptr, ptr %7, align 8, !tbaa !3
  %29 = getelementptr inbounds nuw %struct.gz_state, ptr %28, i32 0, i32 18
  %30 = load i32, ptr %29, align 8, !tbaa !19
  %31 = icmp ne i32 %30, 0
  br i1 %31, label %32, label %43

32:                                               ; preds = %27
  %33 = load ptr, ptr %7, align 8, !tbaa !3
  %34 = getelementptr inbounds nuw %struct.gz_state, ptr %33, i32 0, i32 18
  store i32 0, ptr %34, align 8, !tbaa !19
  %35 = load ptr, ptr %7, align 8, !tbaa !3
  %36 = load ptr, ptr %7, align 8, !tbaa !3
  %37 = getelementptr inbounds nuw %struct.gz_state, ptr %36, i32 0, i32 17
  %38 = load i64, ptr %37, align 8, !tbaa !20
  %39 = call i32 @gz_zero(ptr noundef %35, i64 noundef %38)
  %40 = icmp eq i32 %39, -1
  br i1 %40, label %41, label %42

41:                                               ; preds = %32
  store i32 -1, ptr %3, align 4
  store i32 1, ptr %9, align 4
  br label %90

42:                                               ; preds = %32
  br label %43

43:                                               ; preds = %42, %27
  %44 = load ptr, ptr %8, align 8, !tbaa !9
  %45 = getelementptr inbounds nuw %struct.z_stream_s, ptr %44, i32 0, i32 1
  %46 = load i32, ptr %45, align 8, !tbaa !21
  %47 = load ptr, ptr %7, align 8, !tbaa !3
  %48 = getelementptr inbounds nuw %struct.gz_state, ptr %47, i32 0, i32 4
  %49 = load i32, ptr %48, align 8, !tbaa !18
  %50 = icmp ult i32 %46, %49
  br i1 %50, label %51, label %79

51:                                               ; preds = %43
  %52 = load ptr, ptr %8, align 8, !tbaa !9
  %53 = getelementptr inbounds nuw %struct.z_stream_s, ptr %52, i32 0, i32 1
  %54 = load i32, ptr %53, align 8, !tbaa !21
  %55 = icmp eq i32 %54, 0
  br i1 %55, label %56, label %62

56:                                               ; preds = %51
  %57 = load ptr, ptr %7, align 8, !tbaa !3
  %58 = getelementptr inbounds nuw %struct.gz_state, ptr %57, i32 0, i32 6
  %59 = load ptr, ptr %58, align 8, !tbaa !22
  %60 = load ptr, ptr %8, align 8, !tbaa !9
  %61 = getelementptr inbounds nuw %struct.z_stream_s, ptr %60, i32 0, i32 0
  store ptr %59, ptr %61, align 8, !tbaa !23
  br label %62

62:                                               ; preds = %56, %51
  %63 = load i32, ptr %5, align 4, !tbaa !7
  %64 = trunc i32 %63 to i8
  %65 = load ptr, ptr %8, align 8, !tbaa !9
  %66 = getelementptr inbounds nuw %struct.z_stream_s, ptr %65, i32 0, i32 0
  %67 = load ptr, ptr %66, align 8, !tbaa !23
  %68 = load ptr, ptr %8, align 8, !tbaa !9
  %69 = getelementptr inbounds nuw %struct.z_stream_s, ptr %68, i32 0, i32 1
  %70 = load i32, ptr %69, align 8, !tbaa !21
  %71 = add i32 %70, 1
  store i32 %71, ptr %69, align 8, !tbaa !21
  %72 = zext i32 %70 to i64
  %73 = getelementptr inbounds nuw i8, ptr %67, i64 %72
  store i8 %64, ptr %73, align 1, !tbaa !41
  %74 = load ptr, ptr %7, align 8, !tbaa !3
  %75 = getelementptr inbounds nuw %struct.gz_state, ptr %74, i32 0, i32 3
  %76 = load i64, ptr %75, align 8, !tbaa !24
  %77 = add nsw i64 %76, 1
  store i64 %77, ptr %75, align 8, !tbaa !24
  %78 = load i32, ptr %5, align 4, !tbaa !7
  store i32 %78, ptr %3, align 4
  store i32 1, ptr %9, align 4
  br label %90

79:                                               ; preds = %43
  %80 = load i32, ptr %5, align 4, !tbaa !7
  %81 = trunc i32 %80 to i8
  %82 = getelementptr inbounds [1 x i8], ptr %6, i64 0, i64 0
  store i8 %81, ptr %82, align 1, !tbaa !41
  %83 = load ptr, ptr %4, align 8, !tbaa !3
  %84 = getelementptr inbounds [1 x i8], ptr %6, i64 0, i64 0
  %85 = call i32 @gzwrite(ptr noundef %83, ptr noundef %84, i32 noundef 1)
  %86 = icmp ne i32 %85, 1
  br i1 %86, label %87, label %88

87:                                               ; preds = %79
  store i32 -1, ptr %3, align 4
  store i32 1, ptr %9, align 4
  br label %90

88:                                               ; preds = %79
  %89 = load i32, ptr %5, align 4, !tbaa !7
  store i32 %89, ptr %3, align 4
  store i32 1, ptr %9, align 4
  br label %90

90:                                               ; preds = %88, %87, %62, %41, %26, %12
  call void @llvm.lifetime.end.p0(i64 8, ptr %8) #10
  call void @llvm.lifetime.end.p0(i64 8, ptr %7) #10
  call void @llvm.lifetime.end.p0(i64 1, ptr %6) #10
  %91 = load i32, ptr %3, align 4
  ret i32 %91
}