; Function Attrs: nounwind uwtable
define i32 @gzputc(ptr noundef %0, i32 noundef %1) local_unnamed_addr #0 {
  %3 = alloca [1 x i8], align 1
  call void @llvm.lifetime.start.p0(i64 1, ptr nonnull %3) #14
  %4 = icmp eq ptr %0, null
  br i1 %4, label %gz_zero.exit.thread, label %5

5:                                                ; preds = %2
  %6 = getelementptr inbounds nuw i8, ptr %0, i64 120
  %7 = load i32, ptr %0, align 8, !tbaa !3
  %.not = icmp eq i32 %7, 31153
  br i1 %.not, label %8, label %gz_zero.exit.thread

8:                                                ; preds = %5
  %9 = getelementptr inbounds nuw i8, ptr %0, i64 108
  %10 = load i32, ptr %9, align 4, !tbaa !13
  %.not24 = icmp eq i32 %10, 0
  br i1 %.not24, label %11, label %gz_zero.exit.thread

11:                                               ; preds = %8
  %12 = getelementptr inbounds nuw i8, ptr %0, i64 104
  %13 = load i32, ptr %12, align 8, !tbaa !15
  %.not25 = icmp eq i32 %13, 0
  br i1 %.not25, label %gz_zero.exit, label %14

14:                                               ; preds = %11
  store i32 0, ptr %12, align 8, !tbaa !15
  %15 = getelementptr inbounds nuw i8, ptr %0, i64 96
  %16 = load i64, ptr %15, align 8, !tbaa !16
  %17 = getelementptr inbounds nuw i8, ptr %0, i64 128
  %18 = load i32, ptr %17, align 8, !tbaa !17
  %.not.i = icmp eq i32 %18, 0
  br i1 %.not.i, label %22, label %19

19:                                               ; preds = %14
  %20 = tail call fastcc i32 @gz_comp(ptr noundef nonnull %0, i32 noundef 0)
  %21 = icmp eq i32 %20, -1
  br i1 %21, label %gz_zero.exit.thread, label %22

22:                                               ; preds = %19, %14
  %.not2224.i = icmp eq i64 %16, 0
  br i1 %.not2224.i, label %gz_zero.exit, label %.lr.ph.i

.lr.ph.i:                                         ; preds = %22
  %23 = getelementptr inbounds nuw i8, ptr %0, i64 24
  %24 = getelementptr inbounds nuw i8, ptr %0, i64 32
  %25 = getelementptr inbounds nuw i8, ptr %0, i64 16
  br label %28

26:                                               ; preds = %36
  %27 = sub nsw i64 %.02026.i, %.pre-phi.i
  %.not22.i = icmp eq i64 %27, 0
  br i1 %.not22.i, label %gz_zero.exit, label %28, !llvm.loop !18

28:                                               ; preds = %26, %.lr.ph.i
  %.02026.i = phi i64 [ %16, %.lr.ph.i ], [ %27, %26 ]
  %.not2325.i = phi i1 [ false, %.lr.ph.i ], [ true, %26 ]
  %29 = load i32, ptr %23, align 8, !tbaa !14
  %30 = zext i32 %29 to i64
  %31 = tail call i64 @llvm.smin.i64(i64 %.02026.i, i64 %30)
  %32 = trunc i64 %31 to i32
  br i1 %.not2325.i, label %._crit_edge.i, label %33

._crit_edge.i:                                    ; preds = %28
  %.pre.i = and i64 %31, 4294967295
  br label %36

33:                                               ; preds = %28
  %34 = load ptr, ptr %24, align 8, !tbaa !20
  %35 = and i64 %31, 4294967295
  tail call void @llvm.memset.p0.i64(ptr align 1 %34, i8 0, i64 %35, i1 false)
  br label %36

36:                                               ; preds = %33, %._crit_edge.i
  %.pre-phi.i = phi i64 [ %.pre.i, %._crit_edge.i ], [ %35, %33 ]
  store i32 %32, ptr %17, align 8, !tbaa !17
  %37 = load ptr, ptr %24, align 8, !tbaa !20
  store ptr %37, ptr %6, align 8, !tbaa !21
  %38 = load i64, ptr %25, align 8, !tbaa !22
  %39 = add nsw i64 %38, %.pre-phi.i
  store i64 %39, ptr %25, align 8, !tbaa !22
  %40 = tail call fastcc i32 @gz_comp(ptr noundef nonnull %0, i32 noundef 0)
  %41 = icmp eq i32 %40, -1
  br i1 %41, label %gz_zero.exit.thread, label %26

gz_zero.exit:                                     ; preds = %26, %22, %11
  %42 = getelementptr inbounds nuw i8, ptr %0, i64 128
  %43 = load i32, ptr %42, align 8, !tbaa !17
  %44 = getelementptr inbounds nuw i8, ptr %0, i64 24
  %45 = load i32, ptr %44, align 8, !tbaa !14
  %46 = icmp ult i32 %43, %45
  br i1 %46, label %47, label %61

47:                                               ; preds = %gz_zero.exit
  %48 = icmp eq i32 %43, 0
  br i1 %48, label %49, label %._crit_edge

._crit_edge:                                      ; preds = %47
  %.pre = load ptr, ptr %6, align 8, !tbaa !21
  br label %52

49:                                               ; preds = %47
  %50 = getelementptr inbounds nuw i8, ptr %0, i64 32
  %51 = load ptr, ptr %50, align 8, !tbaa !20
  store ptr %51, ptr %6, align 8, !tbaa !21
  br label %52

52:                                               ; preds = %._crit_edge, %49
  %53 = phi ptr [ %.pre, %._crit_edge ], [ %51, %49 ]
  %54 = trunc i32 %1 to i8
  %55 = add nuw i32 %43, 1
  store i32 %55, ptr %42, align 8, !tbaa !17
  %56 = zext i32 %43 to i64
  %57 = getelementptr inbounds nuw i8, ptr %53, i64 %56
  store i8 %54, ptr %57, align 1, !tbaa !34
  %58 = getelementptr inbounds nuw i8, ptr %0, i64 16
  %59 = load i64, ptr %58, align 8, !tbaa !22
  %60 = add nsw i64 %59, 1
  store i64 %60, ptr %58, align 8, !tbaa !22
  br label %gz_zero.exit.thread

61:                                               ; preds = %gz_zero.exit
  %62 = trunc i32 %1 to i8
  store i8 %62, ptr %3, align 1, !tbaa !34
  %63 = call i32 @gzwrite(ptr noundef nonnull %0, ptr noundef nonnull %3, i32 noundef 1)
  %.not26 = icmp eq i32 %63, 1
  %. = select i1 %.not26, i32 %1, i32 -1
  br label %gz_zero.exit.thread

gz_zero.exit.thread:                              ; preds = %36, %19, %61, %5, %8, %2, %52
  %.0 = phi i32 [ %1, %52 ], [ -1, %2 ], [ -1, %8 ], [ -1, %5 ], [ %., %61 ], [ -1, %19 ], [ -1, %36 ]
  call void @llvm.lifetime.end.p0(i64 1, ptr nonnull %3) #14
  ret i32 %.0
}